target datalayout = "e-m:e-p270:32:32-p271:32:32-p272:64:64-i64:64-i128:128-f80:128-n8:16:32:64-S128"
target triple = "x86_64-pc-linux-gnu"

%struct.nk_color = type { i8, i8, i8, i8 }

; Function Attrs: nounwind uwtable
define void @nk_color_hex_rgba(ptr noundef %0, i32 %1) #0 {
  %3 = alloca %struct.nk_color, align 1
  %4 = alloca ptr, align 8
  store i32 %1, ptr %3, align 1
  store ptr %0, ptr %4, align 8, !tbaa !26
  %5 = getelementptr inbounds nuw %struct.nk_color, ptr %3, i32 0, i32 0
  %6 = load i8, ptr %5, align 1, !tbaa !49
  %7 = zext i8 %6 to i32
  %8 = and i32 %7, 240
  %9 = ashr i32 %8, 4
  %10 = icmp sle i32 %9, 9
  br i1 %10, label %11, label %18

11:                                               ; preds = %2
  %12 = getelementptr inbounds nuw %struct.nk_color, ptr %3, i32 0, i32 0
  %13 = load i8, ptr %12, align 1, !tbaa !49
  %14 = zext i8 %13 to i32
  %15 = and i32 %14, 240
  %16 = ashr i32 %15, 4
  %17 = add nsw i32 48, %16
  br label %25

18:                                               ; preds = %2
  %19 = getelementptr inbounds nuw %struct.nk_color, ptr %3, i32 0, i32 0
  %20 = load i8, ptr %19, align 1, !tbaa !49
  %21 = zext i8 %20 to i32
  %22 = and i32 %21, 240
  %23 = ashr i32 %22, 4
  %24 = add nsw i32 55, %23
  br label %25

25:                                               ; preds = %18, %11
  %26 = phi i32 [ %17, %11 ], [ %24, %18 ]
  %27 = trunc i32 %26 to i8
  %28 = load ptr, ptr %4, align 8, !tbaa !26
  %29 = getelementptr inbounds i8, ptr %28, i64 0
  store i8 %27, ptr %29, align 1, !tbaa !28
  %30 = getelementptr inbounds nuw %struct.nk_color, ptr %3, i32 0, i32 0
  %31 = load i8, ptr %30, align 1, !tbaa !49
  %32 = zext i8 %31 to i32
  %33 = and i32 %32, 15
  %34 = icmp sle i32 %33, 9
  br i1 %34, label %35, label %41

35:                                               ; preds = %25
  %36 = getelementptr inbounds nuw %struct.nk_color, ptr %3, i32 0, i32 0
  %37 = load i8, ptr %36, align 1, !tbaa !49
  %38 = zext i8 %37 to i32
  %39 = and i32 %38, 15
  %40 = add nsw i32 48, %39
  br label %47

41:                                               ; preds = %25
  %42 = getelementptr inbounds nuw %struct.nk_color, ptr %3, i32 0, i32 0
  %43 = load i8, ptr %42, align 1, !tbaa !49
  %44 = zext i8 %43 to i32
  %45 = and i32 %44, 15
  %46 = add nsw i32 55, %45
  br label %47

47:                                               ; preds = %41, %35
  %48 = phi i32 [ %40, %35 ], [ %46, %41 ]
  %49 = trunc i32 %48 to i8
  %50 = load ptr, ptr %4, align 8, !tbaa !26
  %51 = getelementptr inbounds i8, ptr %50, i64 1
  store i8 %49, ptr %51, align 1, !tbaa !28
  %52 = getelementptr inbounds nuw %struct.nk_color, ptr %3, i32 0, i32 1
  %53 = load i8, ptr %52, align 1, !tbaa !51
  %54 = zext i8 %53 to i32
  %55 = and i32 %54, 240
  %56 = ashr i32 %55, 4
  %57 = icmp sle i32 %56, 9
  br i1 %57, label %58, label %65

58:                                               ; preds = %47
  %59 = getelementptr inbounds nuw %struct.nk_color, ptr %3, i32 0, i32 1
  %60 = load i8, ptr %59, align 1, !tbaa !51
  %61 = zext i8 %60 to i32
  %62 = and i32 %61, 240
  %63 = ashr i32 %62, 4
  %64 = add nsw i32 48, %63
  br label %72

65:                                               ; preds = %47
  %66 = getelementptr inbounds nuw %struct.nk_color, ptr %3, i32 0, i32 1
  %67 = load i8, ptr %66, align 1, !tbaa !51
  %68 = zext i8 %67 to i32
  %69 = and i32 %68, 240
  %70 = ashr i32 %69, 4
  %71 = add nsw i32 55, %70
  br label %72

72:                                               ; preds = %65, %58
  %73 = phi i32 [ %64, %58 ], [ %71, %65 ]
  %74 = trunc i32 %73 to i8
  %75 = load ptr, ptr %4, align 8, !tbaa !26
  %76 = getelementptr inbounds i8, ptr %75, i64 2
  store i8 %74, ptr %76, align 1, !tbaa !28
  %77 = getelementptr inbounds nuw %struct.nk_color, ptr %3, i32 0, i32 1
  %78 = load i8, ptr %77, align 1, !tbaa !51
  %79 = zext i8 %78 to i32
  %80 = and i32 %79, 15
  %81 = icmp sle i32 %80, 9
  br i1 %81, label %82, label %88

82:                                               ; preds = %72
  %83 = getelementptr inbounds nuw %struct.nk_color, ptr %3, i32 0, i32 1
  %84 = load i8, ptr %83, align 1, !tbaa !51
  %85 = zext i8 %84 to i32
  %86 = and i32 %85, 15
  %87 = add nsw i32 48, %86
  br label %94

88:                                               ; preds = %72
  %89 = getelementptr inbounds nuw %struct.nk_color, ptr %3, i32 0, i32 1
  %90 = load i8, ptr %89, align 1, !tbaa !51
  %91 = zext i8 %90 to i32
  %92 = and i32 %91, 15
  %93 = add nsw i32 55, %92
  br label %94

94:                                               ; preds = %88, %82
  %95 = phi i32 [ %87, %82 ], [ %93, %88 ]
  %96 = trunc i32 %95 to i8
  %97 = load ptr, ptr %4, align 8, !tbaa !26
  %98 = getelementptr inbounds i8, ptr %97, i64 3
  store i8 %96, ptr %98, align 1, !tbaa !28
  %99 = getelementptr inbounds nuw %struct.nk_color, ptr %3, i32 0, i32 2
  %100 = load i8, ptr %99, align 1, !tbaa !52
  %101 = zext i8 %100 to i32
  %102 = and i32 %101, 240
  %103 = ashr i32 %102, 4
  %104 = icmp sle i32 %103, 9
  br i1 %104, label %105, label %112

105:                                              ; preds = %94
  %106 = getelementptr inbounds nuw %struct.nk_color, ptr %3, i32 0, i32 2
  %107 = load i8, ptr %106, align 1, !tbaa !52
  %108 = zext i8 %107 to i32
  %109 = and i32 %108, 240
  %110 = ashr i32 %109, 4
  %111 = add nsw i32 48, %110
  br label %119

112:                                              ; preds = %94
  %113 = getelementptr inbounds nuw %struct.nk_color, ptr %3, i32 0, i32 2
  %114 = load i8, ptr %113, align 1, !tbaa !52
  %115 = zext i8 %114 to i32
  %116 = and i32 %115, 240
  %117 = ashr i32 %116, 4
  %118 = add nsw i32 55, %117
  br label %119

119:                                              ; preds = %112, %105
  %120 = phi i32 [ %111, %105 ], [ %118, %112 ]
  %121 = trunc i32 %120 to i8
  %122 = load ptr, ptr %4, align 8, !tbaa !26
  %123 = getelementptr inbounds i8, ptr %122, i64 4
  store i8 %121, ptr %123, align 1, !tbaa !28
  %124 = getelementptr inbounds nuw %struct.nk_color, ptr %3, i32 0, i32 2
  %125 = load i8, ptr %124, align 1, !tbaa !52
  %126 = zext i8 %125 to i32
  %127 = and i32 %126, 15
  %128 = icmp sle i32 %127, 9
  br i1 %128, label %129, label %135

129:                                              ; preds = %119
  %130 = getelementptr inbounds nuw %struct.nk_color, ptr %3, i32 0, i32 2
  %131 = load i8, ptr %130, align 1, !tbaa !52
  %132 = zext i8 %131 to i32
  %133 = and i32 %132, 15
  %134 = add nsw i32 48, %133
  br label %141

135:                                              ; preds = %119
  %136 = getelementptr inbounds nuw %struct.nk_color, ptr %3, i32 0, i32 2
  %137 = load i8, ptr %136, align 1, !tbaa !52
  %138 = zext i8 %137 to i32
  %139 = and i32 %138, 15
  %140 = add nsw i32 55, %139
  br label %141

141:                                              ; preds = %135, %129
  %142 = phi i32 [ %134, %129 ], [ %140, %135 ]
  %143 = trunc i32 %142 to i8
  %144 = load ptr, ptr %4, align 8, !tbaa !26
  %145 = getelementptr inbounds i8, ptr %144, i64 5
  store i8 %143, ptr %145, align 1, !tbaa !28
  %146 = getelementptr inbounds nuw %struct.nk_color, ptr %3, i32 0, i32 3
  %147 = load i8, ptr %146, align 1, !tbaa !53
  %148 = zext i8 %147 to i32
  %149 = and i32 %148, 240
  %150 = ashr i32 %149, 4
  %151 = icmp sle i32 %150, 9
  br i1 %151, label %152, label %159

152:                                              ; preds = %141
  %153 = getelementptr inbounds nuw %struct.nk_color, ptr %3, i32 0, i32 3
  %154 = load i8, ptr %153, align 1, !tbaa !53
  %155 = zext i8 %154 to i32
  %156 = and i32 %155, 240
  %157 = ashr i32 %156, 4
  %158 = add nsw i32 48, %157
  br label %166

159:                                              ; preds = %141
  %160 = getelementptr inbounds nuw %struct.nk_color, ptr %3, i32 0, i32 3
  %161 = load i8, ptr %160, align 1, !tbaa !53
  %162 = zext i8 %161 to i32
  %163 = and i32 %162, 240
  %164 = ashr i32 %163, 4
  %165 = add nsw i32 55, %164
  br label %166

166:                                              ; preds = %159, %152
  %167 = phi i32 [ %158, %152 ], [ %165, %159 ]
  %168 = trunc i32 %167 to i8
  %169 = load ptr, ptr %4, align 8, !tbaa !26
  %170 = getelementptr inbounds i8, ptr %169, i64 6
  store i8 %168, ptr %170, align 1, !tbaa !28
  %171 = getelementptr inbounds nuw %struct.nk_color, ptr %3, i32 0, i32 3
  %172 = load i8, ptr %171, align 1, !tbaa !53
  %173 = zext i8 %172 to i32
  %174 = and i32 %173, 15
  %175 = icmp sle i32 %174, 9
  br i1 %175, label %176, label %182

176:                                              ; preds = %166
  %177 = getelementptr inbounds nuw %struct.nk_color, ptr %3, i32 0, i32 3
  %178 = load i8, ptr %177, align 1, !tbaa !53
  %179 = zext i8 %178 to i32
  %180 = and i32 %179, 15
  %181 = add nsw i32 48, %180
  br label %188

182:                                              ; preds = %166
  %183 = getelementptr inbounds nuw %struct.nk_color, ptr %3, i32 0, i32 3
  %184 = load i8, ptr %183, align 1, !tbaa !53
  %185 = zext i8 %184 to i32
  %186 = and i32 %185, 15
  %187 = add nsw i32 55, %186
  br label %188

188:                                              ; preds = %182, %176
  %189 = phi i32 [ %181, %176 ], [ %187, %182 ]
  %190 = trunc i32 %189 to i8
  %191 = load ptr, ptr %4, align 8, !tbaa !26
  %192 = getelementptr inbounds i8, ptr %191, i64 7
  store i8 %190, ptr %192, align 1, !tbaa !28
  %193 = load ptr, ptr %4, align 8, !tbaa !26
  %194 = getelementptr inbounds i8, ptr %193, i64 8
  store i8 0, ptr %194, align 1, !tbaa !28
  ret void
}