; Function Attrs: mustprogress nofree norecurse nosync nounwind willreturn memory(argmem: write) uwtable
define void @nk_color_hex_rgba(ptr noundef writeonly captures(none) initializes((0, 9)) %0, i32 %1) local_unnamed_addr #11 {
  %.sroa.7.0.extract.shift = lshr i32 %1, 8
  %.sroa.13.0.extract.shift = lshr i32 %1, 16
  %.sroa.19.0.extract.shift = lshr i32 %1, 24
  %3 = lshr i32 %1, 4
  %4 = and i32 %3, 15
  %5 = icmp samesign ult i32 %4, 10
  %6 = or disjoint i32 %4, 48
  %7 = add nuw nsw i32 %4, 55
  %8 = select i1 %5, i32 %6, i32 %7
  %9 = trunc nuw nsw i32 %8 to i8
  store i8 %9, ptr %0, align 1, !tbaa !9
  %10 = and i32 %1, 15
  %11 = icmp samesign ult i32 %10, 10
  %12 = or disjoint i32 %10, 48
  %13 = add nuw nsw i32 %10, 55
  %14 = select i1 %11, i32 %12, i32 %13
  %15 = trunc nuw nsw i32 %14 to i8
  %16 = getelementptr inbounds nuw i8, ptr %0, i64 1
  store i8 %15, ptr %16, align 1, !tbaa !9
  %17 = lshr i32 %1, 12
  %18 = and i32 %17, 15
  %19 = icmp samesign ult i32 %18, 10
  %20 = or disjoint i32 %18, 48
  %21 = add nuw nsw i32 %18, 55
  %22 = select i1 %19, i32 %20, i32 %21
  %23 = trunc nuw nsw i32 %22 to i8
  %24 = getelementptr inbounds nuw i8, ptr %0, i64 2
  store i8 %23, ptr %24, align 1, !tbaa !9
  %25 = and i32 %.sroa.7.0.extract.shift, 15
  %26 = icmp samesign ult i32 %25, 10
  %27 = or disjoint i32 %25, 48
  %28 = add nuw nsw i32 %25, 55
  %29 = select i1 %26, i32 %27, i32 %28
  %30 = trunc nuw nsw i32 %29 to i8
  %31 = getelementptr inbounds nuw i8, ptr %0, i64 3
  store i8 %30, ptr %31, align 1, !tbaa !9
  %32 = lshr i32 %1, 20
  %33 = and i32 %32, 15
  %34 = icmp samesign ult i32 %33, 10
  %35 = or disjoint i32 %33, 48
  %36 = add nuw nsw i32 %33, 55
  %37 = select i1 %34, i32 %35, i32 %36
  %38 = trunc nuw nsw i32 %37 to i8
  %39 = getelementptr inbounds nuw i8, ptr %0, i64 4
  store i8 %38, ptr %39, align 1, !tbaa !9
  %40 = and i32 %.sroa.13.0.extract.shift, 15
  %41 = icmp samesign ult i32 %40, 10
  %42 = or disjoint i32 %40, 48
  %43 = add nuw nsw i32 %40, 55
  %44 = select i1 %41, i32 %42, i32 %43
  %45 = trunc nuw nsw i32 %44 to i8
  %46 = getelementptr inbounds nuw i8, ptr %0, i64 5
  store i8 %45, ptr %46, align 1, !tbaa !9
  %47 = lshr i32 %1, 28
  %48 = icmp ult i32 %1, -1610612736
  %49 = or disjoint i32 %47, 48
  %50 = add nuw nsw i32 %47, 55
  %51 = select i1 %48, i32 %49, i32 %50
  %52 = trunc nuw nsw i32 %51 to i8
  %53 = getelementptr inbounds nuw i8, ptr %0, i64 6
  store i8 %52, ptr %53, align 1, !tbaa !9
  %54 = and i32 %.sroa.19.0.extract.shift, 15
  %55 = icmp samesign ult i32 %54, 10
  %56 = or disjoint i32 %54, 48
  %57 = add nuw nsw i32 %54, 55
  %58 = select i1 %55, i32 %56, i32 %57
  %59 = trunc nuw nsw i32 %58 to i8
  %60 = getelementptr inbounds nuw i8, ptr %0, i64 7
  store i8 %59, ptr %60, align 1, !tbaa !9
  %61 = getelementptr inbounds nuw i8, ptr %0, i64 8
  store i8 0, ptr %61, align 1, !tbaa !9
  ret void
}